; Function Attrs: mustprogress uwtable
define dso_local void @_ZN4Luau7Compile11trackValuesERNS_12DenseHashMapINS_7AstNameENS0_6GlobalESt4hashIS2_ESt8equal_toIS2_EEERNS1_IPNS_8AstLocalENS0_8VariableENS_16DenseHashPointerES6_ISB_EEEPNS_7AstNodeE(ptr noundef nonnull align 8 dereferenceable(40) %0, ptr noundef nonnull align 8 dereferenceable(40) %1, ptr noundef %2) local_unnamed_addr #2 personality ptr @__gxx_personality_v0 {
  %4 = alloca %"struct.Luau::Compile::ValueVisitor", align 8
  call void @llvm.lifetime.start.p0(i64 24, ptr nonnull %4) #11
  store ptr getelementptr inbounds nuw inrange(-16, 496) (i8, ptr @_ZTVN4Luau7Compile12ValueVisitorE, i64 16), ptr %4, align 8, !tbaa !26
  %5 = getelementptr inbounds nuw i8, ptr %4, i64 8
  store ptr %0, ptr %5, align 8, !tbaa !28
  %6 = getelementptr inbounds nuw i8, ptr %4, i64 16
  store ptr %1, ptr %6, align 8, !tbaa !30
  %7 = load ptr, ptr %2, align 8, !tbaa !26
  %8 = load ptr, ptr %7, align 8
  call void %8(ptr noundef nonnull align 8 dereferenceable(28) %2, ptr noundef nonnull %4)
  call void @llvm.lifetime.end.p0(i64 24, ptr nonnull %4) #11
  ret void
}